target datalayout = "e-m:e-p270:32:32-p271:32:32-p272:64:64-i64:64-i128:128-f80:128-n8:16:32:64-S128"
target triple = "x86_64-pc-linux-gnu"

%struct.H5S_t = type { %struct.H5S_extent_t, %struct.H5S_select_t }
%struct.H5S_extent_t = type { %struct.H5O_shared_t, i32, i32, i64, i32, ptr, ptr }
%struct.H5O_shared_t = type { i32, ptr, i32, %union.anon }
%union.anon = type { %struct.H5O_mesg_loc_t }
%struct.H5O_mesg_loc_t = type { i32, i64 }
%struct.H5S_select_t = type { ptr, i8, [32 x i64], i64, %union.anon.0 }
%union.anon.0 = type { ptr }

@H5S_init_g = global i8 0, align 1
@H5_libterm_g = external global i8, align 1

; Function Attrs: nounwind uwtable
define i32 @H5S_extent_equal(ptr noundef %0, ptr noundef %1) #0 {
  %3 = alloca ptr, align 8
  %4 = alloca ptr, align 8
  %5 = alloca i32, align 4
  %6 = alloca i32, align 4
  store ptr %0, ptr %3, align 8, !tbaa !13
  store ptr %1, ptr %4, align 8, !tbaa !13
  call void @llvm.lifetime.start.p0(i64 4, ptr %5) #7
  call void @llvm.lifetime.start.p0(i64 4, ptr %6) #7
  store i32 1, ptr %6, align 4, !tbaa !3
  %7 = load i8, ptr @H5S_init_g, align 1, !tbaa !7, !range !9, !noundef !10
  %8 = trunc i8 %7 to i1
  br i1 %8, label %13, label %9

9:                                                ; preds = %2
  %10 = load i8, ptr @H5_libterm_g, align 1, !tbaa !7, !range !9, !noundef !10
  %11 = trunc i8 %10 to i1
  %12 = xor i1 %11, true
  br label %13

13:                                               ; preds = %9, %2
  %14 = phi i1 [ true, %2 ], [ %12, %9 ]
  %15 = xor i1 %14, true
  %16 = xor i1 %15, true
  %17 = zext i1 %16 to i32
  %18 = sext i32 %17 to i64
  %19 = call i64 @llvm.expect.i64(i64 %18, i64 1)
  %20 = icmp ne i64 %19, 0
  br i1 %20, label %21, label %175

21:                                               ; preds = %13
  %22 = load ptr, ptr %3, align 8, !tbaa !13
  %23 = getelementptr inbounds nuw %struct.H5S_t, ptr %22, i32 0, i32 0
  %24 = getelementptr inbounds nuw %struct.H5S_extent_t, ptr %23, i32 0, i32 1
  %25 = load i32, ptr %24, align 8, !tbaa !16
  %26 = load ptr, ptr %4, align 8, !tbaa !13
  %27 = getelementptr inbounds nuw %struct.H5S_t, ptr %26, i32 0, i32 0
  %28 = getelementptr inbounds nuw %struct.H5S_extent_t, ptr %27, i32 0, i32 1
  %29 = load i32, ptr %28, align 8, !tbaa !16
  %30 = icmp ne i32 %25, %29
  br i1 %30, label %31, label %35

31:                                               ; preds = %21
  br label %32

32:                                               ; preds = %31
  store i32 0, ptr %6, align 4, !tbaa !3
  br label %174

33:                                               ; No predecessors!
  br label %34

34:                                               ; preds = %33
  br label %35

35:                                               ; preds = %34, %21
  %36 = load ptr, ptr %3, align 8, !tbaa !13
  %37 = getelementptr inbounds nuw %struct.H5S_t, ptr %36, i32 0, i32 0
  %38 = getelementptr inbounds nuw %struct.H5S_extent_t, ptr %37, i32 0, i32 4
  %39 = load i32, ptr %38, align 8, !tbaa !24
  %40 = load ptr, ptr %4, align 8, !tbaa !13
  %41 = getelementptr inbounds nuw %struct.H5S_t, ptr %40, i32 0, i32 0
  %42 = getelementptr inbounds nuw %struct.H5S_extent_t, ptr %41, i32 0, i32 4
  %43 = load i32, ptr %42, align 8, !tbaa !24
  %44 = icmp ne i32 %39, %43
  br i1 %44, label %45, label %49

45:                                               ; preds = %35
  br label %46

46:                                               ; preds = %45
  store i32 0, ptr %6, align 4, !tbaa !3
  br label %174

47:                                               ; No predecessors!
  br label %48

48:                                               ; preds = %47
  br label %49

49:                                               ; preds = %48, %35
  %50 = load ptr, ptr %3, align 8, !tbaa !13
  %51 = getelementptr inbounds nuw %struct.H5S_t, ptr %50, i32 0, i32 0
  %52 = getelementptr inbounds nuw %struct.H5S_extent_t, ptr %51, i32 0, i32 4
  %53 = load i32, ptr %52, align 8, !tbaa !24
  %54 = icmp ugt i32 %53, 0
  br i1 %54, label %55, label %90

55:                                               ; preds = %49
  store i32 0, ptr %5, align 4, !tbaa !3
  br label %56

56:                                               ; preds = %86, %55
  %57 = load i32, ptr %5, align 4, !tbaa !3
  %58 = load ptr, ptr %3, align 8, !tbaa !13
  %59 = getelementptr inbounds nuw %struct.H5S_t, ptr %58, i32 0, i32 0
  %60 = getelementptr inbounds nuw %struct.H5S_extent_t, ptr %59, i32 0, i32 4
  %61 = load i32, ptr %60, align 8, !tbaa !24
  %62 = icmp ult i32 %57, %61
  br i1 %62, label %63, label %89

63:                                               ; preds = %56
  %64 = load ptr, ptr %3, align 8, !tbaa !13
  %65 = getelementptr inbounds nuw %struct.H5S_t, ptr %64, i32 0, i32 0
  %66 = getelementptr inbounds nuw %struct.H5S_extent_t, ptr %65, i32 0, i32 5
  %67 = load ptr, ptr %66, align 8, !tbaa !26
  %68 = load i32, ptr %5, align 4, !tbaa !3
  %69 = zext i32 %68 to i64
  %70 = getelementptr inbounds nuw i64, ptr %67, i64 %69
  %71 = load i64, ptr %70, align 8, !tbaa !11
  %72 = load ptr, ptr %4, align 8, !tbaa !13
  %73 = getelementptr inbounds nuw %struct.H5S_t, ptr %72, i32 0, i32 0
  %74 = getelementptr inbounds nuw %struct.H5S_extent_t, ptr %73, i32 0, i32 5
  %75 = load ptr, ptr %74, align 8, !tbaa !26
  %76 = load i32, ptr %5, align 4, !tbaa !3
  %77 = zext i32 %76 to i64
  %78 = getelementptr inbounds nuw i64, ptr %75, i64 %77
  %79 = load i64, ptr %78, align 8, !tbaa !11
  %80 = icmp ne i64 %71, %79
  br i1 %80, label %81, label %85

81:                                               ; preds = %63
  br label %82

82:                                               ; preds = %81
  store i32 0, ptr %6, align 4, !tbaa !3
  br label %174

83:                                               ; No predecessors!
  br label %84

84:                                               ; preds = %83
  br label %85

85:                                               ; preds = %84, %63
  br label %86

86:                                               ; preds = %85
  %87 = load i32, ptr %5, align 4, !tbaa !3
  %88 = add i32 %87, 1
  store i32 %88, ptr %5, align 4, !tbaa !3
  br label %56, !llvm.loop !67

89:                                               ; preds = %56
  br label %90

90:                                               ; preds = %89, %49
  %91 = load ptr, ptr %3, align 8, !tbaa !13
  %92 = getelementptr inbounds nuw %struct.H5S_t, ptr %91, i32 0, i32 0
  %93 = getelementptr inbounds nuw %struct.H5S_extent_t, ptr %92, i32 0, i32 4
  %94 = load i32, ptr %93, align 8, !tbaa !24
  %95 = icmp ugt i32 %94, 0
  br i1 %95, label %96, label %173

96:                                               ; preds = %90
  %97 = load ptr, ptr %3, align 8, !tbaa !13
  %98 = getelementptr inbounds nuw %struct.H5S_t, ptr %97, i32 0, i32 0
  %99 = getelementptr inbounds nuw %struct.H5S_extent_t, ptr %98, i32 0, i32 6
  %100 = load ptr, ptr %99, align 8, !tbaa !25
  %101 = icmp ne ptr %100, null
  br i1 %101, label %102, label %143

102:                                              ; preds = %96
  %103 = load ptr, ptr %4, align 8, !tbaa !13
  %104 = getelementptr inbounds nuw %struct.H5S_t, ptr %103, i32 0, i32 0
  %105 = getelementptr inbounds nuw %struct.H5S_extent_t, ptr %104, i32 0, i32 6
  %106 = load ptr, ptr %105, align 8, !tbaa !25
  %107 = icmp ne ptr %106, null
  br i1 %107, label %108, label %143

108:                                              ; preds = %102
  store i32 0, ptr %5, align 4, !tbaa !3
  br label %109

109:                                              ; preds = %139, %108
  %110 = load i32, ptr %5, align 4, !tbaa !3
  %111 = load ptr, ptr %3, align 8, !tbaa !13
  %112 = getelementptr inbounds nuw %struct.H5S_t, ptr %111, i32 0, i32 0
  %113 = getelementptr inbounds nuw %struct.H5S_extent_t, ptr %112, i32 0, i32 4
  %114 = load i32, ptr %113, align 8, !tbaa !24
  %115 = icmp ult i32 %110, %114
  br i1 %115, label %116, label %142

116:                                              ; preds = %109
  %117 = load ptr, ptr %3, align 8, !tbaa !13
  %118 = getelementptr inbounds nuw %struct.H5S_t, ptr %117, i32 0, i32 0
  %119 = getelementptr inbounds nuw %struct.H5S_extent_t, ptr %118, i32 0, i32 6
  %120 = load ptr, ptr %119, align 8, !tbaa !25
  %121 = load i32, ptr %5, align 4, !tbaa !3
  %122 = zext i32 %121 to i64
  %123 = getelementptr inbounds nuw i64, ptr %120, i64 %122
  %124 = load i64, ptr %123, align 8, !tbaa !11
  %125 = load ptr, ptr %4, align 8, !tbaa !13
  %126 = getelementptr inbounds nuw %struct.H5S_t, ptr %125, i32 0, i32 0
  %127 = getelementptr inbounds nuw %struct.H5S_extent_t, ptr %126, i32 0, i32 6
  %128 = load ptr, ptr %127, align 8, !tbaa !25
  %129 = load i32, ptr %5, align 4, !tbaa !3
  %130 = zext i32 %129 to i64
  %131 = getelementptr inbounds nuw i64, ptr %128, i64 %130
  %132 = load i64, ptr %131, align 8, !tbaa !11
  %133 = icmp ne i64 %124, %132
  br i1 %133, label %134, label %138

134:                                              ; preds = %116
  br label %135

135:                                              ; preds = %134
  store i32 0, ptr %6, align 4, !tbaa !3
  br label %174

136:                                              ; No predecessors!
  br label %137

137:                                              ; preds = %136
  br label %138

138:                                              ; preds = %137, %116
  br label %139

139:                                              ; preds = %138
  %140 = load i32, ptr %5, align 4, !tbaa !3
  %141 = add i32 %140, 1
  store i32 %141, ptr %5, align 4, !tbaa !3
  br label %109, !llvm.loop !68

142:                                              ; preds = %109
  br label %172

143:                                              ; preds = %102, %96
  %144 = load ptr, ptr %3, align 8, !tbaa !13
  %145 = getelementptr inbounds nuw %struct.H5S_t, ptr %144, i32 0, i32 0
  %146 = getelementptr inbounds nuw %struct.H5S_extent_t, ptr %145, i32 0, i32 6
  %147 = load ptr, ptr %146, align 8, !tbaa !25
  %148 = icmp eq ptr %147, null
  br i1 %148, label %149, label %155

149:                                              ; preds = %143
  %150 = load ptr, ptr %4, align 8, !tbaa !13
  %151 = getelementptr inbounds nuw %struct.H5S_t, ptr %150, i32 0, i32 0
  %152 = getelementptr inbounds nuw %struct.H5S_extent_t, ptr %151, i32 0, i32 6
  %153 = load ptr, ptr %152, align 8, !tbaa !25
  %154 = icmp ne ptr %153, null
  br i1 %154, label %167, label %155

155:                                              ; preds = %149, %143
  %156 = load ptr, ptr %3, align 8, !tbaa !13
  %157 = getelementptr inbounds nuw %struct.H5S_t, ptr %156, i32 0, i32 0
  %158 = getelementptr inbounds nuw %struct.H5S_extent_t, ptr %157, i32 0, i32 6
  %159 = load ptr, ptr %158, align 8, !tbaa !25
  %160 = icmp ne ptr %159, null
  br i1 %160, label %161, label %171

161:                                              ; preds = %155
  %162 = load ptr, ptr %4, align 8, !tbaa !13
  %163 = getelementptr inbounds nuw %struct.H5S_t, ptr %162, i32 0, i32 0
  %164 = getelementptr inbounds nuw %struct.H5S_extent_t, ptr %163, i32 0, i32 6
  %165 = load ptr, ptr %164, align 8, !tbaa !25
  %166 = icmp eq ptr %165, null
  br i1 %166, label %167, label %171

167:                                              ; preds = %161, %149
  br label %168

168:                                              ; preds = %167
  store i32 0, ptr %6, align 4, !tbaa !3
  br label %174

169:                                              ; No predecessors!
  br label %170

170:                                              ; preds = %169
  br label %171

171:                                              ; preds = %170, %161, %155
  br label %172

172:                                              ; preds = %171, %142
  br label %173

173:                                              ; preds = %172, %90
  br label %174

174:                                              ; preds = %173, %168, %135, %82, %46, %32
  br label %175

175:                                              ; preds = %174, %13
  %176 = load i32, ptr %6, align 4, !tbaa !3
  call void @llvm.lifetime.end.p0(i64 4, ptr %6) #7
  call void @llvm.lifetime.end.p0(i64 4, ptr %5) #7
  ret i32 %176
}