; Function Attrs: nofree norecurse nosync nounwind memory(read, inaccessiblemem: none) uwtable
define range(i32 0, 2) i32 @H5S_extent_equal(ptr noundef readonly captures(none) %0, ptr noundef readonly captures(none) %1) local_unnamed_addr #7 {
  %3 = load i8, ptr @H5S_init_g, align 1, !tbaa !3, !range !7, !noundef !8
  %4 = trunc nuw i8 %3 to i1
  %5 = load i8, ptr @H5_libterm_g, align 1, !range !7
  %6 = trunc nuw i8 %5 to i1
  %7 = xor i1 %6, true
  %8 = select i1 %4, i1 true, i1 %7
  br i1 %8, label %9, label %.thread, !prof !9

9:                                                ; preds = %2
  %10 = getelementptr inbounds nuw i8, ptr %0, i64 40
  %11 = load i32, ptr %10, align 8, !tbaa !13
  %12 = getelementptr inbounds nuw i8, ptr %1, i64 40
  %13 = load i32, ptr %12, align 8, !tbaa !13
  %.not = icmp eq i32 %11, %13
  br i1 %.not, label %14, label %.thread

14:                                               ; preds = %9
  %15 = getelementptr inbounds nuw i8, ptr %0, i64 56
  %16 = load i32, ptr %15, align 8, !tbaa !23
  %17 = getelementptr inbounds nuw i8, ptr %1, i64 56
  %18 = load i32, ptr %17, align 8, !tbaa !23
  %.not28 = icmp eq i32 %16, %18
  br i1 %.not28, label %19, label %.thread

19:                                               ; preds = %14
  %.not29 = icmp eq i32 %16, 0
  br i1 %.not29, label %.thread, label %.preheader39

.preheader39:                                     ; preds = %19
  %20 = getelementptr inbounds nuw i8, ptr %0, i64 64
  %21 = load ptr, ptr %20, align 8, !tbaa !43
  %22 = getelementptr inbounds nuw i8, ptr %1, i64 64
  %23 = load ptr, ptr %22, align 8, !tbaa !43
  %wide.trip.count = zext i32 %16 to i64
  br label %25

24:                                               ; preds = %25
  %indvars.iv.next = add nuw nsw i64 %indvars.iv, 1
  %exitcond.not = icmp eq i64 %indvars.iv.next, %wide.trip.count
  br i1 %exitcond.not, label %30, label %25, !llvm.loop !60

25:                                               ; preds = %.preheader39, %24
  %indvars.iv = phi i64 [ 0, %.preheader39 ], [ %indvars.iv.next, %24 ]
  %26 = getelementptr inbounds nuw i64, ptr %21, i64 %indvars.iv
  %27 = load i64, ptr %26, align 8, !tbaa !10
  %28 = getelementptr inbounds nuw i64, ptr %23, i64 %indvars.iv
  %29 = load i64, ptr %28, align 8, !tbaa !10
  %.not36 = icmp eq i64 %27, %29
  br i1 %.not36, label %24, label %.thread

30:                                               ; preds = %24
  %31 = getelementptr inbounds nuw i8, ptr %0, i64 72
  %32 = load ptr, ptr %31, align 8, !tbaa !42
  %.not31 = icmp eq ptr %32, null
  %33 = getelementptr inbounds nuw i8, ptr %1, i64 72
  %34 = load ptr, ptr %33, align 8, !tbaa !42
  %.not33 = icmp eq ptr %34, null
  br i1 %.not31, label %41, label %35

35:                                               ; preds = %30
  br i1 %.not33, label %42, label %.preheader

36:                                               ; preds = %.preheader
  %indvars.iv.next46 = add nuw nsw i64 %indvars.iv45, 1
  %exitcond49.not = icmp eq i64 %indvars.iv.next46, %wide.trip.count
  br i1 %exitcond49.not, label %.thread, label %.preheader, !llvm.loop !61

.preheader:                                       ; preds = %35, %36
  %indvars.iv45 = phi i64 [ %indvars.iv.next46, %36 ], [ 0, %35 ]
  %37 = getelementptr inbounds nuw i64, ptr %32, i64 %indvars.iv45
  %38 = load i64, ptr %37, align 8, !tbaa !10
  %39 = getelementptr inbounds nuw i64, ptr %34, i64 %indvars.iv45
  %40 = load i64, ptr %39, align 8, !tbaa !10
  %.not35 = icmp eq i64 %38, %40
  br i1 %.not35, label %36, label %.thread

41:                                               ; preds = %30
  br i1 %.not33, label %.thread, label %42

42:                                               ; preds = %35, %41
  br label %.thread

.thread:                                          ; preds = %25, %.preheader, %36, %41, %19, %14, %9, %42, %2
  %.0 = phi i32 [ 0, %42 ], [ 1, %2 ], [ 0, %9 ], [ 0, %14 ], [ 1, %19 ], [ 1, %41 ], [ 0, %.preheader ], [ 1, %36 ], [ 0, %25 ]
  ret i32 %.0
}